; Function Attrs: mustprogress nounwind uwtable
define hidden void @_ZN6Assimp18ZipArchiveIOSystemD2Ev(ptr nocapture noundef nonnull align 8 dereferenceable(40) %this) unnamed_addr #1 align 2 personality ptr @__gxx_personality_v0 {
entry:
  store ptr getelementptr inbounds ({ [16 x ptr] }, ptr @_ZTVN6Assimp18ZipArchiveIOSystemE, i64 0, i32 0, i64 2), ptr %this, align 8
  %pImpl = getelementptr inbounds i8, ptr %this, i64 32
  %0 = load ptr, ptr %pImpl, align 8
  %isnull = icmp eq ptr %0, null
  br i1 %isnull, label %delete.end, label %delete.notnull

delete.notnull:                                   ; preds = %entry
  %1 = load ptr, ptr %0, align 8
  %cmp.not.i = icmp eq ptr %1, null
  br i1 %cmp.not.i, label %if.end.i, label %if.then.i

if.then.i:                                        ; preds = %delete.notnull
  %call.i = invoke i32 @unzClose(ptr noundef nonnull %1)
          to label %if.end.i unwind label %terminate.lpad.i

if.end.i:                                         ; preds = %if.then.i, %delete.notnull
  %m_ArchiveMap.i = getelementptr inbounds i8, ptr %0, i64 8
  %_M_parent.i.i.i.i.i = getelementptr inbounds i8, ptr %0, i64 24
  %2 = load ptr, ptr %_M_parent.i.i.i.i.i, align 8
  invoke void @_ZNSt8_Rb_treeINSt7__cxx1112basic_stringIcSt11char_traitsIcESaIcEEESt4pairIKS5_N6Assimp11ZipFileInfoEESt10_Select1stISA_ESt4lessIS5_ESaISA_EE8_M_eraseEPSt13_Rb_tree_nodeISA_E(ptr noundef nonnull align 8 dereferenceable(48) %m_ArchiveMap.i, ptr noundef %2)
          to label %_ZN6Assimp18ZipArchiveIOSystem9ImplementD2Ev.exit unwind label %terminate.lpad.i.i.i

terminate.lpad.i.i.i:                             ; preds = %if.end.i
  %3 = landingpad { ptr, i32 }
          catch ptr null
  %4 = extractvalue { ptr, i32 } %3, 0
  tail call void @__clang_call_terminate(ptr %4) #27
  unreachable

terminate.lpad.i:                                 ; preds = %if.then.i
  %5 = landingpad { ptr, i32 }
          catch ptr null
  %6 = extractvalue { ptr, i32 } %5, 0
  tail call void @__clang_call_terminate(ptr %6) #27
  unreachable

_ZN6Assimp18ZipArchiveIOSystem9ImplementD2Ev.exit: ; preds = %if.end.i
  tail call void @_ZdlPv(ptr noundef nonnull %0) #31
  br label %delete.end

delete.end:                                       ; preds = %_ZN6Assimp18ZipArchiveIOSystem9ImplementD2Ev.exit, %entry
  store ptr getelementptr inbounds ({ [16 x ptr] }, ptr @_ZTVN6Assimp8IOSystemE, i64 0, i32 0, i64 2), ptr %this, align 8
  %m_pathStack.i = getelementptr inbounds i8, ptr %this, i64 8
  %7 = load ptr, ptr %m_pathStack.i, align 8
  %_M_finish.i.i = getelementptr inbounds i8, ptr %this, i64 16
  %8 = load ptr, ptr %_M_finish.i.i, align 8
  %cmp.not3.i.i.i.i.i = icmp eq ptr %7, %8
  br i1 %cmp.not3.i.i.i.i.i, label %invoke.cont.i.i, label %for.body.i.i.i.i.i

for.body.i.i.i.i.i:                               ; preds = %delete.end, %for.body.i.i.i.i.i
  %__first.addr.04.i.i.i.i.i = phi ptr [ %incdec.ptr.i.i.i.i.i, %for.body.i.i.i.i.i ], [ %7, %delete.end ]
  tail call void @_ZNSt7__cxx1112basic_stringIcSt11char_traitsIcESaIcEED1Ev(ptr noundef nonnull align 8 dereferenceable(32) %__first.addr.04.i.i.i.i.i) #28
  %incdec.ptr.i.i.i.i.i = getelementptr inbounds i8, ptr %__first.addr.04.i.i.i.i.i, i64 32
  %cmp.not.i.i.i.i.i = icmp eq ptr %incdec.ptr.i.i.i.i.i, %8
  br i1 %cmp.not.i.i.i.i.i, label %invoke.contthread-pre-split.i.i, label %for.body.i.i.i.i.i, !llvm.loop !15

invoke.contthread-pre-split.i.i:                  ; preds = %for.body.i.i.i.i.i
  %.pr.i.i = load ptr, ptr %m_pathStack.i, align 8
  br label %invoke.cont.i.i

invoke.cont.i.i:                                  ; preds = %invoke.contthread-pre-split.i.i, %delete.end
  %9 = phi ptr [ %.pr.i.i, %invoke.contthread-pre-split.i.i ], [ %7, %delete.end ]
  %tobool.not.i.i.i.i = icmp eq ptr %9, null
  br i1 %tobool.not.i.i.i.i, label %_ZN6Assimp8IOSystemD2Ev.exit, label %if.then.i.i.i.i

if.then.i.i.i.i:                                  ; preds = %invoke.cont.i.i
  tail call void @_ZdlPv(ptr noundef nonnull %9) #31
  br label %_ZN6Assimp8IOSystemD2Ev.exit

_ZN6Assimp8IOSystemD2Ev.exit:                     ; preds = %invoke.cont.i.i, %if.then.i.i.i.i
  ret void
}